; Function Attrs: mustprogress uwtable
define noundef zeroext i1 @_ZN17grpc_event_engine12experimental22WorkStealingThreadPool10WorkSignal15WaitWithTimeoutEN9grpc_core8DurationE(ptr noundef nonnull align 8 dereferenceable(16) %this, i64 %time.coerce) local_unnamed_addr #3 align 2 personality ptr @__gxx_personality_v0 {
invoke.cont3:
  tail call void @_ZN4absl12lts_202308025Mutex4LockEv(ptr noundef nonnull align 8 dereferenceable(8) %this)
  %div.i.i = sdiv i64 %time.coerce, 1000
  %rem.i.i = srem i64 %time.coerce, 1000
  %mul2.i.i = mul nsw i64 %rem.i.i, 4000000
  %cmp.i.i.i = icmp slt i64 %rem.i.i, 0
  %0 = trunc i64 %mul2.i.i to i32
  %conv.i.i.i.i = add i32 %0, -294967296
  %ticks.lobit.i.i.i = ashr i64 %mul2.i.i, 63
  %sub.pn.i.i.i = add nsw i64 %ticks.lobit.i.i.i, %div.i.i
  %conv.i.pn.i.i.i = select i1 %cmp.i.i.i, i32 %conv.i.i.i.i, i32 %0
  %cv_ = getelementptr inbounds i8, ptr %this, i64 8
  %call6 = invoke noundef zeroext i1 @_ZN4absl12lts_202308027CondVar15WaitWithTimeoutEPNS0_5MutexENS0_8DurationE(ptr noundef nonnull align 8 dereferenceable(8) %cv_, ptr noundef nonnull %this, i64 %sub.pn.i.i.i, i32 %conv.i.pn.i.i.i)
          to label %invoke.cont5 unwind label %lpad

invoke.cont5:                                     ; preds = %invoke.cont3
  invoke void @_ZN4absl12lts_202308025Mutex6UnlockEv(ptr noundef nonnull align 8 dereferenceable(8) %this)
          to label %_ZN4absl12lts_202308029MutexLockD2Ev.exit unwind label %terminate.lpad.i

terminate.lpad.i:                                 ; preds = %invoke.cont5
  %1 = landingpad { ptr, i32 }
          catch ptr null
  %2 = extractvalue { ptr, i32 } %1, 0
  tail call void @__clang_call_terminate(ptr %2) #24
  unreachable

_ZN4absl12lts_202308029MutexLockD2Ev.exit:        ; preds = %invoke.cont5
  ret i1 %call6

lpad:                                             ; preds = %invoke.cont3
  %3 = landingpad { ptr, i32 }
          cleanup
  invoke void @_ZN4absl12lts_202308025Mutex6UnlockEv(ptr noundef nonnull align 8 dereferenceable(8) %this)
          to label %_ZN4absl12lts_202308029MutexLockD2Ev.exit2 unwind label %terminate.lpad.i1

terminate.lpad.i1:                                ; preds = %lpad
  %4 = landingpad { ptr, i32 }
          catch ptr null
  %5 = extractvalue { ptr, i32 } %4, 0
  tail call void @__clang_call_terminate(ptr %5) #24
  unreachable

_ZN4absl12lts_202308029MutexLockD2Ev.exit2:       ; preds = %lpad
  resume { ptr, i32 } %3
}